; Function Attrs: mustprogress nofree norecurse nosync nounwind memory(read, argmem: readwrite, inaccessiblemem: none) uwtable
define noundef zeroext i1 @_ZN11OpenImageIO6v3_1_07Strutil16parse_until_charERNS0_17basic_string_viewIcSt11char_traitsIcEEEcb(ptr noundef nonnull align 8 captures(none) dereferenceable(16) %0, i8 noundef signext %1, i1 noundef zeroext %2) local_unnamed_addr #14 personality ptr @__gxx_personality_v0 {
  %4 = load ptr, ptr %0, align 8, !tbaa !67
  %5 = getelementptr inbounds nuw i8, ptr %0, i64 8
  %6 = load i64, ptr %5, align 8, !tbaa !64
  %.not10 = icmp eq i64 %6, 0
  br i1 %.not10, label %.critedge, label %.lr.ph.preheader

.lr.ph.preheader:                                 ; preds = %3
  %scevgep = getelementptr i8, ptr %4, i64 %6
  br label %.lr.ph

.lr.ph:                                           ; preds = %.lr.ph.preheader, %8
  %.sroa.0.012 = phi ptr [ %9, %8 ], [ %4, %.lr.ph.preheader ]
  %.sroa.8.011 = phi i64 [ %10, %8 ], [ %6, %.lr.ph.preheader ]
  %7 = load i8, ptr %.sroa.0.012, align 1, !tbaa !3
  %.not4.not.not = icmp ne i8 %7, %1
  br i1 %.not4.not.not, label %8, label %.critedge

8:                                                ; preds = %.lr.ph
  %9 = getelementptr inbounds nuw i8, ptr %.sroa.0.012, i64 1
  %10 = add i64 %.sroa.8.011, -1
  %.not = icmp eq i64 %10, 0
  br i1 %.not, label %.critedge, label %.lr.ph, !llvm.loop !352

.critedge:                                        ; preds = %.lr.ph, %8, %3
  %.sroa.8.0.lcssa = phi i64 [ 0, %3 ], [ 0, %8 ], [ %.sroa.8.011, %.lr.ph ]
  %.sroa.0.0.lcssa = phi ptr [ %4, %3 ], [ %scevgep, %8 ], [ %.sroa.0.012, %.lr.ph ]
  %.not.lcssa = phi i1 [ true, %3 ], [ %.not4.not.not, %8 ], [ %.not4.not.not, %.lr.ph ]
  br i1 %2, label %11, label %12

11:                                               ; preds = %.critedge
  store ptr %.sroa.0.0.lcssa, ptr %0, align 8, !tbaa !13
  store i64 %.sroa.8.0.lcssa, ptr %5, align 8, !tbaa !86
  br label %12

12:                                               ; preds = %11, %.critedge
  br i1 %.not.lcssa, label %16, label %13

13:                                               ; preds = %12
  %14 = load i8, ptr %.sroa.0.0.lcssa, align 1, !tbaa !3
  %15 = icmp eq i8 %14, %1
  br label %16

16:                                               ; preds = %13, %12
  %17 = phi i1 [ false, %12 ], [ %15, %13 ]
  ret i1 %17
}